
                            * = $0000
0000   7B 0A 20             RRA $200A,Y        ;(7)
0003   20 22 70             JSR $7022          ;(6)
0006   61 79                ADC ($79,X)        ;(6)
0008   6C 6F 61             JMP ($616F)        ;(5)
000B   64 22                NOP $22            ;(3)
000D   3A                   NOP                ;(2)
000E   20 7B 0A             JSR $0A7B          ;(6)
0011   20 20 20             JSR $2020          ;(6)
0014   20 22 6E             JSR $6E22          ;(6)
0017   61 6D                ADC ($6D,X)        ;(6)
0019   65 22                ADC $22            ;(3)
001B   3A                   NOP                ;(2)
001C   20 22 70             JSR $7022          ;(6)
001F   6F 72 74             RRA $7472          ;(6)
0022   61 6C                ADC ($6C,X)        ;(6)
0024   73 37                RRA ($37),Y        ;(8)
0026   38                   SEC                ;(2)
0027   40                   RTI                ;(6)
0028   79 61 68             ADC $6861,Y        ;(4/5)
002B   6F 6F 2E             RRA $2E6F          ;(6)
002E   63 6F                RRA ($6F,X)        ;(8)
0030   6D 22 2C             ADC $2C22          ;(4)
0033   0A                   ASL A              ;(2)
0034   20 20 20             JSR $2020          ;(6)
0037   20 22 65             JSR $6522          ;(6)
003A   6D 61 69             ADC $6961          ;(4)
003D   6C 22 3A             JMP ($3A22)        ;(5)
0040   20 22 70             JSR $7022          ;(6)
0043   6F 72 74             RRA $7472          ;(6)
0046   61 6C                ADC ($6C,X)        ;(6)
0048   73 37                RRA ($37),Y        ;(8)
004A   38                   SEC                ;(2)
004B   40                   RTI                ;(6)
004C   79 61 68             ADC $6861,Y        ;(4/5)
004F   6F 6F 2E             RRA $2E6F          ;(6)
0052   63 6F                RRA ($6F,X)        ;(8)
0054   6D 22 2C             ADC $2C22          ;(4)
0057   0A                   ASL A              ;(2)
0058   20 20 20             JSR $2020          ;(6)
005B   20 22 6C             JSR $6C22          ;(6)
005E   69 63                ADC #$63           ;(2)
0060   65 6E                ADC $6E            ;(3)
0062   73 65                RRA ($65),Y        ;(8)
0064   73 22                RRA ($22),Y        ;(8)
0066   3A                   NOP                ;(2)
0067   20 5B 0A             JSR $0A5B          ;(6)
006A   20 20 20             JSR $2020          ;(6)
006D   20 20 20             JSR $2020          ;(6)
0070   7B 0A 20             RRA $200A,Y        ;(7)
0073   20 20 20             JSR $2020          ;(6)
0076   20 20 20             JSR $2020          ;(6)
0079   20 22 69             JSR $6922          ;(6)
007C   64 22                NOP $22            ;(3)
007E   3A                   NOP                ;(2)
007F   20 22 39             JSR $3922          ;(6)
0082   36 2D                ROL $2D,X          ;(6)
0084   43 43                SRE ($43,X)        ;(8)
0086   36 32                ROL $32,X          ;(6)
0088   2D 45 31             AND $3145          ;(4)
008B   34 43                NOP $43,X          ;(4)
008D   2D 46 46             AND $4646          ;(4)
0090   22                   JAM
0091   2C 0A 20             BIT $200A          ;(4)
0094   20 20 20             JSR $2020          ;(6)
0097   20 20 20             JSR $2020          ;(6)
009A   20 22 6F             JSR $6F22          ;(6)
009D   77 6E                RRA $6E,X          ;(6)
009F   65 72                ADC $72            ;(3)
00A1   22                   JAM
00A2   3A                   NOP                ;(2)
00A3   20 22 70             JSR $7022          ;(6)
00A6   6F 72 74             RRA $7472          ;(6)
00A9   61 6C                ADC ($6C,X)        ;(6)
00AB   73 37                RRA ($37),Y        ;(8)
00AD   38                   SEC                ;(2)
00AE   40                   RTI                ;(6)
00AF   79 61 68             ADC $6861,Y        ;(4/5)
00B2   6F 6F 2E             RRA $2E6F          ;(6)
00B5   63 6F                RRA ($6F,X)        ;(8)
00B7   6D 22 2C             ADC $2C22          ;(4)
00BA   0A                   ASL A              ;(2)
00BB   20 20 20             JSR $2020          ;(6)
00BE   20 20 20             JSR $2020          ;(6)
00C1   20 20 22             JSR $2220          ;(6)
00C4   70 72                BVS L0138          ;(2/4)
00C6   6F 64 75             RRA $7564          ;(6)
00C9   63 74                RRA ($74,X)        ;(8)
00CB   5F 69 64             SRE $6469,X        ;(7)
00CE   22                   JAM
00CF   3A                   NOP                ;(2)
00D0   20 22 49             JSR $4922          ;(6)
00D3   44 41                NOP $41            ;(3)
00D5   46 52                LSR $52            ;(5)
00D7   45 45                EOR $45            ;(3)
00D9   22                   JAM
00DA   2C 0A 20             BIT $200A          ;(4)
00DD   20 20 20             JSR $2020          ;(6)
00E0   20 20 20             JSR $2020          ;(6)
00E3   20 22 65             JSR $6522          ;(6)
00E6   64 69                NOP $69            ;(3)
00E8   74 69                NOP $69,X          ;(4)
00EA   6F 6E 5F             RRA $5F6E          ;(6)
00ED   69 64                ADC #$64           ;(2)
00EF   22                   JAM
00F0   3A                   NOP                ;(2)
00F1   20 22 69             JSR $6922          ;(6)
00F4   64 61                NOP $61            ;(3)
00F6   2D 66 72             AND $7266          ;(4)
00F9   65 65                ADC $65            ;(3)
00FB   22                   JAM
00FC   2C 0A 20             BIT $200A          ;(4)
00FF   20 20 20             JSR $2020          ;(6)
0102   20 20 20             JSR $2020          ;(6)
0105   20 22 64             JSR $6422          ;(6)
0108   65 73                ADC $73            ;(3)
010A   63 72                RRA ($72,X)        ;(8)
010C   69 70                ADC #$70           ;(2)
010E   74 69                NOP $69,X          ;(4)
0110   6F 6E 22             RRA $226E          ;(6)
0113   3A                   NOP                ;(2)
0114   20 22 49             JSR $4922          ;(6)
0117   44 41                NOP $41            ;(3)
0119   20 46 72             JSR $7246          ;(6)
011C   65 65                ADC $65            ;(3)
011E   20 50 43             JSR $4350          ;(6)
0121   22                   JAM
0122   2C 0A 20             BIT $200A          ;(4)
0125   20 20 20             JSR $2020          ;(6)
0128   20 20 20             JSR $2020          ;(6)
012B   20 22 73             JSR $7322          ;(6)
012E   74 61                NOP $61,X          ;(4)
0130   72                   JAM
0131   74 5F                NOP $5F,X          ;(4)
0133   64 61                NOP $61            ;(3)
0135   74 65                NOP $65,X          ;(4)
0137   22                   JAM
0138   3A         L0138     NOP                ;(2)
0139   20 22 32             JSR $3222          ;(6)
013C   30 32                BMI L0170          ;(2/3)
013E   35 2D                AND $2D,X          ;(4)
0140   31 32                AND ($32),Y        ;(5/6)
0142   2D 30 35             AND $3530          ;(4)
0145   22                   JAM
0146   2C 0A 20             BIT $200A          ;(4)
0149   20 20 20             JSR $2020          ;(6)
014C   20 20 20             JSR $2020          ;(6)
014F   20 22 65             JSR $6522          ;(6)
0152   6E 64 5F             ROR $5F64          ;(6)
0155   64 61                NOP $61            ;(3)
0157   74 65                NOP $65,X          ;(4)
0159   22                   JAM
015A   3A                   NOP                ;(2)
015B   20 22 32             JSR $3222          ;(6)
015E   30 32                BMI L0192          ;(2/3)
0160   36 2D                ROL $2D,X          ;(6)
0162   31 32                AND ($32),Y        ;(5/6)
0164   2D 30 35             AND $3530          ;(4)
0167   22                   JAM
0168   2C 0A 20             BIT $200A          ;(4)
016B   20 20 20             JSR $2020          ;(6)
016E   20 20 20             JSR $2020          ;(6)
0171   20 22 69             JSR $6922          ;(6)
0174   73 73                RRA ($73),Y        ;(8)
0176   75 65                ADC $65,X          ;(4)
0178   64 5F                NOP $5F            ;(3)
017A   6F 6E 22             RRA $226E          ;(6)
017D   3A                   NOP                ;(2)
017E   20 22 32             JSR $3222          ;(6)
0181   30 32                BMI L01B5          ;(2/3)
0183   35 2D                AND $2D,X          ;(4)
0185   31 32                AND ($32),Y        ;(5/6)
0187   2D 30 35             AND $3530          ;(4)
018A   20 30 30             JSR $3030          ;(6)
018D   3A                   NOP                ;(2)
018E   34 37                NOP $37,X          ;(4)
0190   3A                   NOP                ;(2)
0191   34 39                NOP $39,X          ;(4)
0193   22                   JAM
0194   2C 0A 20             BIT $200A          ;(4)
0197   20 20 20             JSR $2020          ;(6)
019A   20 20 20             JSR $2020          ;(6)
019D   20 22 6C             JSR $6C22          ;(6)
01A0   69 63                ADC #$63           ;(2)
01A2   65 6E                ADC $6E            ;(3)
01A4   73 65                RRA ($65),Y        ;(8)
01A6   5F 74 79             SRE $7974,X        ;(7)
01A9   70 65                BVS L0210          ;(2/4)
01AB   22                   JAM
01AC   3A                   NOP                ;(2)
01AD   20 22 6E             JSR $6E22          ;(6)
01B0   61 6D                ADC ($6D,X)        ;(6)
01B2   65 64                ADC $64            ;(3)
01B4   22                   JAM
01B5   2C 0A 20   L01B5     BIT $200A          ;(4)
01B8   20 20 20             JSR $2020          ;(6)
01BB   20 20 20             JSR $2020          ;(6)
01BE   20 22 73             JSR $7322          ;(6)
01C1   65 61                ADC $61            ;(3)
01C3   74 73                NOP $73,X          ;(4)
01C5   22                   JAM
01C6   3A                   NOP                ;(2)
01C7   20 31 2C             JSR $2C31          ;(6)
01CA   0A                   ASL A              ;(2)
01CB   20 20 20             JSR $2020          ;(6)
01CE   20 20 20             JSR $2020          ;(6)
01D1   20 20 22             JSR $2220          ;(6)
01D4   61 64                ADC ($64,X)        ;(6)
01D6   64 5F                NOP $5F            ;(3)
01D8   6F 6E 73             RRA $736E          ;(6)
01DB   22                   JAM
01DC   3A                   NOP                ;(2)
01DD   20 5B 0A             JSR $0A5B          ;(6)
01E0   20 20 20             JSR $2020          ;(6)
01E3   20 20 20             JSR $2020          ;(6)
01E6   20 20 20             JSR $2020          ;(6)
01E9   20 7B 0A             JSR $0A7B          ;(6)
01EC   20 20 20             JSR $2020          ;(6)
01EF   20 20 20             JSR $2020          ;(6)
01F2   20 20 20             JSR $2020          ;(6)
01F5   20 20 20             JSR $2020          ;(6)
01F8   22                   JAM
01F9   69 64                ADC #$64           ;(2)
01FB   22                   JAM
01FC   3A                   NOP                ;(2)
01FD   20 22 39             JSR $3922          ;(6)
0200   37 2D                RLA $2D,X          ;(6)
0202   39 35 32             AND $3235,Y        ;(4/5)
0205   34 2D                NOP $2D,X          ;(4)
0207   41 34                EOR ($34,X)        ;(6)
0209   46 37                LSR $37            ;(5)
020B   2D 36 32             AND $3236          ;(4)
020E   22                   JAM
020F   2C 0A 20             BIT $200A          ;(4)
0212   20 20 20             JSR $2020          ;(6)
0215   20 20 20             JSR $2020          ;(6)
0218   20 20 20             JSR $2020          ;(6)
021B   20 20 22             JSR $2220          ;(6)
021E   63 6F                RRA ($6F,X)        ;(8)
0220   64 65                NOP $65            ;(3)
0222   22                   JAM
0223   3A                   NOP                ;(2)
0224   20 22 48             JSR $4822          ;(6)
0227   45 58                EOR $58            ;(3)
0229   43 58                SRE ($58,X)        ;(8)
022B   36 34                ROL $34,X          ;(6)
022D   22                   JAM
022E   2C 0A 20             BIT $200A          ;(4)
0231   20 20 20             JSR $2020          ;(6)
0234   20 20 20             JSR $2020          ;(6)
0237   20 20 20             JSR $2020          ;(6)
023A   20 20 22             JSR $2220          ;(6)
023D   6F 77 6E             RRA $6E77          ;(6)
0240   65 72                ADC $72            ;(3)
0242   22                   JAM
0243   3A                   NOP                ;(2)
0244   20 22 39             JSR $3922          ;(6)
0247   36 2D                ROL $2D,X          ;(6)
0249   43 43                SRE ($43,X)        ;(8)
024B   36 32                ROL $32,X          ;(6)
024D   2D 45 31             AND $3145          ;(4)
0250   34 43                NOP $43,X          ;(4)
0252   2D 46 46             AND $4646          ;(4)
0255   22                   JAM
0256   2C 0A 20             BIT $200A          ;(4)
0259   20 20 20             JSR $2020          ;(6)
025C   20 20 20             JSR $2020          ;(6)
025F   20 20 20             JSR $2020          ;(6)
0262   20 20 22             JSR $2220          ;(6)
0265   73 74                RRA ($74),Y        ;(8)
0267   61 72                ADC ($72,X)        ;(6)
0269   74 5F                NOP $5F,X          ;(4)
026B   64 61                NOP $61            ;(3)
026D   74 65                NOP $65,X          ;(4)
026F   22                   JAM
0270   3A                   NOP                ;(2)
0271   20 22 32             JSR $3222          ;(6)
0274   30 32                BMI L02A8          ;(2/3)
0276   35 2D                AND $2D,X          ;(4)
0278   31 32                AND ($32),Y        ;(5/6)
027A   2D 30 35             AND $3530          ;(4)
027D   22                   JAM
027E   2C 0A 20             BIT $200A          ;(4)
0281   20 20 20             JSR $2020          ;(6)
0284   20 20 20             JSR $2020          ;(6)
0287   20 20 20             JSR $2020          ;(6)
028A   20 20 22             JSR $2220          ;(6)
028D   65 6E                ADC $6E            ;(3)
028F   64 5F                NOP $5F            ;(3)
0291   64 61                NOP $61            ;(3)
0293   74 65                NOP $65,X          ;(4)
0295   22                   JAM
0296   3A                   NOP                ;(2)
0297   20 22 32             JSR $3222          ;(6)
029A   30 32                BMI L02CE          ;(2/3)
029C   36 2D                ROL $2D,X          ;(6)
029E   31 32                AND ($32),Y        ;(5/6)
02A0   2D 30 35             AND $3530          ;(4)
02A3   22                   JAM
02A4   0A                   ASL A              ;(2)
02A5   20 20 20             JSR $2020          ;(6)
02A8   20 20 20   L02A8     JSR $2020          ;(6)
02AB   20 20 20             JSR $2020          ;(6)
02AE   20 7D 2C             JSR $2C7D          ;(6)
02B1   0A                   ASL A              ;(2)
02B2   20 20 20             JSR $2020          ;(6)
02B5   20 20 20             JSR $2020          ;(6)
02B8   20 20 20             JSR $2020          ;(6)
02BB   20 7B 0A             JSR $0A7B          ;(6)
02BE   20 20 20             JSR $2020          ;(6)
02C1   20 20 20             JSR $2020          ;(6)
02C4   20 20 20             JSR $2020          ;(6)
02C7   20 20 20             JSR $2020          ;(6)
02CA   22                   JAM
02CB   69 64                ADC #$64           ;(2)
02CD   22                   JAM
02CE   3A         L02CE     NOP                ;(2)
02CF   20 22 39             JSR $3922          ;(6)
02D2   37 2D                RLA $2D,X          ;(6)
02D4   45 30                EOR $30            ;(3)
02D6   38                   SEC                ;(2)
02D7   42                   JAM
02D8   2D 35 37             AND $3735          ;(4)
02DB   45 42                EOR $42            ;(3)
02DD   2D 42 35             AND $3542          ;(4)
02E0   22                   JAM
02E1   2C 0A 20             BIT $200A          ;(4)
02E4   20 20 20             JSR $2020          ;(6)
02E7   20 20 20             JSR $2020          ;(6)
02EA   20 20 20             JSR $2020          ;(6)
02ED   20 20 22             JSR $2220          ;(6)
02F0   63 6F                RRA ($6F,X)        ;(8)
02F2   64 65                NOP $65            ;(3)
02F4   22                   JAM
02F5   3A                   NOP                ;(2)
02F6   20 22 48             JSR $4822          ;(6)
02F9   45 58                EOR $58            ;(3)
02FB   43 58                SRE ($58,X)        ;(8)
02FD   38                   SEC                ;(2)
02FE   36 22                ROL $22,X          ;(6)
0300   2C 0A 20             BIT $200A          ;(4)
0303   20 20 20             JSR $2020          ;(6)
0306   20 20 20             JSR $2020          ;(6)
0309   20 20 20             JSR $2020          ;(6)
030C   20 20 22             JSR $2220          ;(6)
030F   6F 77 6E             RRA $6E77          ;(6)
0312   65 72                ADC $72            ;(3)
0314   22                   JAM
0315   3A                   NOP                ;(2)
0316   20 22 39             JSR $3922          ;(6)
0319   36 2D                ROL $2D,X          ;(6)
031B   43 43                SRE ($43,X)        ;(8)
031D   36 32                ROL $32,X          ;(6)
031F   2D 45 31             AND $3145          ;(4)
0322   34 43                NOP $43,X          ;(4)
0324   2D 46 46             AND $4646          ;(4)
0327   22                   JAM
0328   2C 0A 20             BIT $200A          ;(4)
032B   20 20 20             JSR $2020          ;(6)
032E   20 20 20             JSR $2020          ;(6)
0331   20 20 20             JSR $2020          ;(6)
0334   20 20 22             JSR $2220          ;(6)
0337   73 74                RRA ($74),Y        ;(8)
0339   61 72                ADC ($72,X)        ;(6)
033B   74 5F                NOP $5F,X          ;(4)
033D   64 61                NOP $61            ;(3)
033F   74 65                NOP $65,X          ;(4)
0341   22                   JAM
0342   3A                   NOP                ;(2)
0343   20 22 32             JSR $3222          ;(6)
0346   30 32                BMI L037A          ;(2/3)
0348   35 2D                AND $2D,X          ;(4)
034A   31 32                AND ($32),Y        ;(5/6)
034C   2D 30 35             AND $3530          ;(4)
034F   22                   JAM
0350   2C 0A 20             BIT $200A          ;(4)
0353   20 20 20             JSR $2020          ;(6)
0356   20 20 20             JSR $2020          ;(6)
0359   20 20 20             JSR $2020          ;(6)
035C   20 20 22             JSR $2220          ;(6)
035F   65 6E                ADC $6E            ;(3)
0361   64 5F                NOP $5F            ;(3)
0363   64 61                NOP $61            ;(3)
0365   74 65                NOP $65,X          ;(4)
0367   22                   JAM
0368   3A                   NOP                ;(2)
0369   20 22 32             JSR $3222          ;(6)
036C   30 32                BMI L03A0          ;(2/3)
036E   36 2D                ROL $2D,X          ;(6)
0370   31 32                AND ($32),Y        ;(5/6)
0372   2D 30 35             AND $3530          ;(4)
0375   22                   JAM
0376   0A                   ASL A              ;(2)
0377   20 20 20             JSR $2020          ;(6)
037A   20 20 20   L037A     JSR $2020          ;(6)
037D   20 20 20             JSR $2020          ;(6)
0380   20 7D 0A             JSR $0A7D          ;(6)
0383   20 20 20             JSR $2020          ;(6)
0386   20 20 20             JSR $2020          ;(6)
0389   20 20 5D             JSR $5D20          ;(6)
038C   0A                   ASL A              ;(2)
038D   20 20 20             JSR $2020          ;(6)
0390   20 20 20             JSR $2020          ;(6)
0393   7D 0A 20             ADC $200A,X        ;(4/5)
0396   20 20 20             JSR $2020          ;(6)
0399   5D 0A 20             EOR $200A,X        ;(4/5)
039C   20 7D 2C             JSR $2C7D          ;(6)
039F   0A                   ASL A              ;(2)
03A0   20 20 22   L03A0     JSR $2220          ;(6)
03A3   68                   PLA                ;(4)
03A4   65 61                ADC $61            ;(3)
03A6   64 65                NOP $65            ;(3)
03A8   72                   JAM
03A9   22                   JAM
03AA   3A                   NOP                ;(2)
03AB   20 7B 0A             JSR $0A7B          ;(6)
03AE   20 20 20             JSR $2020          ;(6)
03B1   20 22 76             JSR $7622          ;(6)
03B4   65 72                ADC $72            ;(3)
03B6   73 69                RRA ($69),Y        ;(8)
03B8   6F 6E 22             RRA $226E          ;(6)
03BB   3A                   NOP                ;(2)
03BC   20 31 0A             JSR $0A31          ;(6)
03BF   20 20 7D             JSR $7D20          ;(6)
03C2   2C 0A 20             BIT $200A          ;(4)
03C5   20 22 73             JSR $7322          ;(6)
03C8   69 67                ADC #$67           ;(2)
03CA   6E 61 74             ROR $7461          ;(6)
03CD   75 72                ADC $72,X          ;(4)
03CF   65 22                ADC $22            ;(3)
03D1   3A                   NOP                ;(2)
03D2   20 22 31             JSR $3122          ;(6)
03D5   35 44                AND $44,X          ;(4)
03D7   46 38                LSR $38            ;(5)
03D9   44 45                NOP $45            ;(3)
03DB   42                   JAM
03DC   30 39                BMI L0417          ;(2/4)
03DE   37 36                RLA $36,X          ;(6)
03E0   36 30                ROL $30,X          ;(6)
03E2   35 33                AND $33,X          ;(4)
03E4   44 39                NOP $39            ;(3)
03E6   35 31                AND $31,X          ;(4)
03E8   46 33                LSR $33            ;(5)
03EA   45 39                EOR $39            ;(3)
03EC   36 41                ROL $41,X          ;(6)
03EE   44 41                NOP $41            ;(3)
03F0   46 42                LSR $42            ;(5)
03F2   42                   JAM
03F3   34 43                NOP $43,X          ;(4)
03F5   36 43                ROL $43,X          ;(6)
03F7   46 46                LSR $46            ;(5)
03F9   45 39                EOR $39            ;(3)
03FB   45 30                EOR $30            ;(3)
03FD   32                   JAM
03FE   36 39                ROL $39,X          ;(6)
0400   39 30 31             AND $3130,Y        ;(4/5)
0403   35 30                AND $30,X          ;(4)
0405   42                   JAM
0406   41 41                EOR ($41,X)        ;(6)
0408   32                   JAM
0409   43 39                SRE ($39,X)        ;(8)
040B   39 39 34             AND $3439,Y        ;(4/5)
040E   33 33                RLA ($33),Y        ;(8)
0410   36 31                ROL $31,X          ;(6)
0412   32                   JAM
0413   34 32                NOP $32,X          ;(4)
0415   41 46                EOR ($46,X)        ;(6)
0417   33 42      L0417     RLA ($42),Y        ;(8)
0419   31 39                AND ($39),Y        ;(5/6)
041B   42                   JAM
041C   37 41                RLA $41,X          ;(6)
041E   37 36                RLA $36,X          ;(6)
0420   30 43                BMI L0465          ;(2/3)
0422   45 32                EOR $32            ;(3)
0424   44 35                NOP $35            ;(3)
0426   33 42                RLA ($42),Y        ;(8)
0428   37 43                RLA $43,X          ;(6)
042A   44 31                NOP $31            ;(3)
042C   45 31                EOR $31            ;(3)
042E   31 34                AND ($34),Y        ;(5/6)
0430   32                   JAM
0431   45 36                EOR $36            ;(3)
0433   35 39                AND $39,X          ;(4)
0435   37 32                RLA $32,X          ;(6)
0437   31 35                AND ($35),Y        ;(5/6)
0439   46 46                LSR $46            ;(5)
043B   33 35                RLA ($35),Y        ;(8)
043D   45 39                EOR $39            ;(3)
043F   34 46                NOP $46,X          ;(4)
0441   31 43                AND ($43),Y        ;(5/6)
0443   37 46                RLA $46,X          ;(6)
0445   37 39                RLA $39,X          ;(6)
0447   33 36                RLA ($36),Y        ;(8)
0449   37 38                RLA $38,X          ;(6)
044B   45 33                EOR $33            ;(3)
044D   33 34                RLA ($34),Y        ;(8)
044F   35 45                AND $45,X          ;(4)
0451   37 46                RLA $46,X          ;(6)
0453   37 41                RLA $41,X          ;(6)
0455   33 41                RLA ($41),Y        ;(8)
0457   33 46                RLA ($46),Y        ;(8)
0459   33 31                RLA ($31),Y        ;(8)
045B   34 30                NOP $30,X          ;(4)
045D   36 35                ROL $35,X          ;(6)
045F   33 36                RLA ($36),Y        ;(8)
0461   30 41                BMI L04A4          ;(2/3)
0463   42                   JAM
0464   32                   JAM
0465   38         L0465     SEC                ;(2)
0466   31 42                AND ($42),Y        ;(5/6)
0468   39 34 37             AND $3734,Y        ;(4/5)
046B   45 32                EOR $32            ;(3)
046D   44 30                NOP $30            ;(3)
046F   43 43                SRE ($43,X)        ;(8)
0471   42                   JAM
0472   38                   SEC                ;(2)
0473   34 34                NOP $34,X          ;(4)
0475   37 36                RLA $36,X          ;(6)
0477   30 43                BMI L04BC          ;(2/3)
0479   31 31                AND ($31),Y        ;(5/6)
047B   46 35                LSR $35            ;(5)
047D   30 45                BMI L04C4          ;(2/3)
047F   46 36                LSR $36            ;(5)
0481   33 43                RLA ($43),Y        ;(8)
0483   43 30                SRE ($30,X)        ;(8)
0485   46 46                LSR $46            ;(5)
0487   46 41                LSR $41            ;(5)
0489   35 41                AND $41,X          ;(4)
048B   34 31                NOP $31,X          ;(4)
048D   39 37 39             AND $3937,Y        ;(4/5)
0490   46 35                LSR $35            ;(5)
0492   46 33                LSR $33            ;(5)
0494   45 34                EOR $34            ;(3)
0496   37 38                RLA $38,X          ;(6)
0498   41 39                EOR ($39,X)        ;(6)
049A   46 38                LSR $38            ;(5)
049C   38                   SEC                ;(2)
049D   36 32                ROL $32,X          ;(6)
049F   31 44                AND ($44),Y        ;(5/6)
04A1   36 33                ROL $33,X          ;(6)
04A3   44 30                NOP $30            ;(3)
04A5   42                   JAM
04A6   36 39                ROL $39,X          ;(6)
04A8   38                   SEC                ;(2)
04A9   36 42                ROL $42,X          ;(6)
04AB   34 46                NOP $46,X          ;(4)
04AD   45 44                EOR $44            ;(3)
04AF   30 41                BMI $04F2          ;(2/3)
04B1   38                   SEC                ;(2)
04B2   32                   JAM
04B3   37 35                RLA $35,X          ;(6)
04B5   30 35                BMI $04EC          ;(2/3)
04B7   39 30 36             AND $3630,Y        ;(4/5)
04BA   30 44                BMI $0500          ;(2/4)
04BC   34 30      L04BC     NOP $30,X          ;(4)
04BE   33 34                RLA ($34),Y        ;(8)
04C0   43 38                SRE ($38,X)        ;(8)
04C2   38                   SEC                ;(2)
04C3   46 32                LSR $32            ;(5)
04C5   37 42                RLA $42,X          ;(6)
04C7   31 34                AND ($34),Y        ;(5/6)
04C9   43 45                SRE ($45,X)        ;(8)
04CB   33 35                RLA ($35),Y        ;(8)
04CD   30 35                BMI $0504          ;(2/4)
04CF   37 31                RLA $31,X          ;(6)
04D1   44 39                NOP $39            ;(3)
04D3   30 22                BMI $04F7          ;(2/3)
04D5   0A                   ASL A              ;(2)
04D6   7D 00 00             ADC $0000,X        ;(4/5)
                            .END

;auto-generated symbols and labels
 L0138      $0138
 L0170      $0170
 L0192      $0192
 L01B5      $01B5
 L0210      $0210
 L02A8      $02A8
 L02CE      $02CE
 L037A      $037A
 L03A0      $03A0
 L0417      $0417
 L0465      $0465
 L04A4      $04A4
 L04BC      $04BC
 L04C4      $04C4
